; ModuleID = '29/1342.c'
source_filename = "29/1342.c"
target datalayout = "e-m:e-p270:32:32-p271:32:32-p272:64:64-i64:64-f80:128-n8:16:32:64-S128"
target triple = "x86_64-pc-linux-gnu"

@.str = private unnamed_addr constant [3 x i8] c"%d\00", align 1
@.str.1 = private unnamed_addr constant [7 x i8] c"%.3lf\0A\00", align 1

; Function Attrs: noinline nounwind uwtable
define dso_local i32 @main() #0 {
  %1 = alloca i32, align 4
  %2 = alloca i32, align 4
  %3 = alloca i32*, align 8
  %4 = alloca i32, align 4
  %5 = alloca double, align 8
  store i32 0, i32* %1, align 4
  %6 = call i32 (i8*, ...) @__isoc99_scanf(i8* getelementptr inbounds ([3 x i8], [3 x i8]* @.str, i64 0, i64 0), i32* %2)
  %7 = load i32, i32* %2, align 4
  %8 = sext i32 %7 to i64
  %9 = mul i64 4, %8
  %10 = call noalias i8* @malloc(i64 %9) #3
  %11 = bitcast i8* %10 to i32*
  store i32* %11, i32** %3, align 8
  store i32 0, i32* %4, align 4
  br label %12

12:                                               ; preds = %22, %0
  %13 = load i32, i32* %4, align 4
  %14 = load i32, i32* %2, align 4
  %15 = icmp slt i32 %13, %14
  br i1 %15, label %16, label %25

16:                                               ; preds = %12
  %17 = load i32*, i32** %3, align 8
  %18 = load i32, i32* %4, align 4
  %19 = sext i32 %18 to i64
  %20 = getelementptr inbounds i32, i32* %17, i64 %19
  %21 = call i32 (i8*, ...) @__isoc99_scanf(i8* getelementptr inbounds ([3 x i8], [3 x i8]* @.str, i64 0, i64 0), i32* %20)
  br label %22

22:                                               ; preds = %16
  %23 = load i32, i32* %4, align 4
  %24 = add nsw i32 %23, 1
  store i32 %24, i32* %4, align 4
  br label %12

25:                                               ; preds = %12
  store i32 0, i32* %4, align 4
  br label %26

26:                                               ; preds = %39, %25
  %27 = load i32, i32* %4, align 4
  %28 = load i32, i32* %2, align 4
  %29 = icmp slt i32 %27, %28
  br i1 %29, label %30, label %42

30:                                               ; preds = %26
  %31 = load i32*, i32** %3, align 8
  %32 = load i32, i32* %4, align 4
  %33 = sext i32 %32 to i64
  %34 = getelementptr inbounds i32, i32* %31, i64 %33
  %35 = load i32, i32* %34, align 4
  %36 = call double @add(i32 %35)
  store double %36, double* %5, align 8
  %37 = load double, double* %5, align 8
  %38 = call i32 (i8*, ...) @printf(i8* getelementptr inbounds ([7 x i8], [7 x i8]* @.str.1, i64 0, i64 0), double %37)
  br label %39

39:                                               ; preds = %30
  %40 = load i32, i32* %4, align 4
  %41 = add nsw i32 %40, 1
  store i32 %41, i32* %4, align 4
  br label %26

42:                                               ; preds = %26
  ret i32 0
}

declare dso_local i32 @__isoc99_scanf(i8*, ...) #1

; Function Attrs: nounwind
declare dso_local noalias i8* @malloc(i64) #2

; Function Attrs: noinline nounwind uwtable
define dso_local double @add(i32 %0) #0 {
  %2 = alloca i32, align 4
  %3 = alloca double, align 8
  %4 = alloca double, align 8
  %5 = alloca double, align 8
  %6 = alloca double, align 8
  store i32 %0, i32* %2, align 4
  store double 2.000000e+00, double* %3, align 8
  store double 1.000000e+00, double* %4, align 8
  store double 0.000000e+00, double* %6, align 8
  br label %7

7:                                                ; preds = %21, %1
  %8 = load i32, i32* %2, align 4
  %9 = icmp sgt i32 %8, 0
  br i1 %9, label %10, label %24

10:                                               ; preds = %7
  %11 = load double, double* %3, align 8
  %12 = load double, double* %4, align 8
  %13 = fdiv double %11, %12
  %14 = load double, double* %6, align 8
  %15 = fadd double %14, %13
  store double %15, double* %6, align 8
  %16 = load double, double* %4, align 8
  store double %16, double* %5, align 8
  %17 = load double, double* %3, align 8
  store double %17, double* %4, align 8
  %18 = load double, double* %5, align 8
  %19 = load double, double* %3, align 8
  %20 = fadd double %18, %19
  store double %20, double* %3, align 8
  br label %21

21:                                               ; preds = %10
  %22 = load i32, i32* %2, align 4
  %23 = add nsw i32 %22, -1
  store i32 %23, i32* %2, align 4
  br label %7

24:                                               ; preds = %7
  %25 = load double, double* %6, align 8
  ret double %25
}

declare dso_local i32 @printf(i8*, ...) #1


!llvm.module.flags = !{!0}
!llvm.ident = !{!1}

!0 = !{i32 1, !"wchar_size", i32 4}
!1 = !{!"clang version 10.0.0-4ubuntu1 "}
